; Function Attrs: nounwind uwtable
define void @Abc_NtkTimeSetInputDrive(ptr noundef captures(none) %0, i32 noundef %1, float noundef %2, float noundef %3) local_unnamed_addr #3 {
  %5 = getelementptr inbounds nuw i8, ptr %0, i64 264
  %6 = load ptr, ptr %5, align 8
  %7 = icmp eq ptr %6, null
  br i1 %7, label %8, label %10

8:                                                ; preds = %4
  %9 = tail call fastcc ptr @Abc_ManTimeStart(ptr noundef nonnull %0)
  store ptr %9, ptr %5, align 8
  br label %10

10:                                               ; preds = %8, %4
  %11 = phi ptr [ %9, %8 ], [ %6, %4 ]
  %12 = getelementptr inbounds nuw i8, ptr %11, i64 32
  %13 = load float, ptr %12, align 8
  %14 = fcmp oeq float %13, %2
  br i1 %14, label %15, label %19

15:                                               ; preds = %10
  %16 = getelementptr inbounds nuw i8, ptr %11, i64 36
  %17 = load float, ptr %16, align 4
  %18 = fcmp oeq float %17, %3
  br i1 %18, label %45, label %19

19:                                               ; preds = %15, %10
  %20 = getelementptr inbounds nuw i8, ptr %11, i64 48
  %21 = load ptr, ptr %20, align 8
  %22 = icmp eq ptr %21, null
  br i1 %22, label %23, label %.loopexit

23:                                               ; preds = %19
  %24 = getelementptr i8, ptr %0, i64 56
  %.val21 = load ptr, ptr %24, align 8
  %25 = getelementptr i8, ptr %.val21, i64 4
  %.val21.val = load i32, ptr %25, align 4
  %26 = sext i32 %.val21.val to i64
  %27 = tail call noalias ptr @calloc(i64 noundef %26, i64 noundef 8) #21
  store ptr %27, ptr %20, align 8
  %.val22 = load ptr, ptr %24, align 8
  %28 = getelementptr i8, ptr %.val22, i64 4
  %.val.val23 = load i32, ptr %28, align 4
  %29 = icmp sgt i32 %.val.val23, 0
  br i1 %29, label %.lr.ph, label %.loopexit

.lr.ph:                                           ; preds = %23, %.lr.ph
  %indvars.iv = phi i64 [ %indvars.iv.next, %.lr.ph ], [ 0, %23 ]
  %30 = load ptr, ptr %5, align 8
  %31 = getelementptr inbounds nuw i8, ptr %30, i64 48
  %32 = load ptr, ptr %31, align 8
  %33 = getelementptr inbounds nuw %struct.Abc_Time_t_, ptr %32, i64 %indvars.iv
  %34 = getelementptr inbounds nuw i8, ptr %30, i64 32
  %35 = load i64, ptr %34, align 8
  store i64 %35, ptr %33, align 4
  %indvars.iv.next = add nuw nsw i64 %indvars.iv, 1
  %.val = load ptr, ptr %24, align 8
  %36 = getelementptr i8, ptr %.val, i64 4
  %.val.val = load i32, ptr %36, align 4
  %37 = sext i32 %.val.val to i64
  %38 = icmp slt i64 %indvars.iv.next, %37
  br i1 %38, label %.lr.ph, label %.loopexit, !llvm.loop !15

.loopexit:                                        ; preds = %.lr.ph, %23, %19
  %39 = load ptr, ptr %5, align 8
  %40 = getelementptr inbounds nuw i8, ptr %39, i64 48
  %41 = load ptr, ptr %40, align 8
  %42 = sext i32 %1 to i64
  %43 = getelementptr inbounds %struct.Abc_Time_t_, ptr %41, i64 %42
  store float %2, ptr %43, align 4
  %44 = getelementptr inbounds nuw i8, ptr %43, i64 4
  store float %3, ptr %44, align 4
  br label %45

45:                                               ; preds = %15, %.loopexit
  ret void
}